target datalayout = "e-m:e-p270:32:32-p271:32:32-p272:64:64-i64:64-i128:128-f80:128-n8:16:32:64-S128"
target triple = "x86_64-pc-linux-gnu"

@hf_awdl_unknown = internal global i32 0, align 4
@hf_awdl_electionparams_private_master = internal global i32 0, align 4
@hf_awdl_electionparams_master = internal global i32 0, align 4
@hf_awdl_electionparams_flags = internal global i32 0, align 4
@hf_awdl_electionparams_id = internal global i32 0, align 4
@hf_awdl_electionparams_distance = internal global i32 0, align 4
@hf_awdl_electionparams_mastermetric = internal global i32 0, align 4
@hf_awdl_electionparams_selfmetric = internal global i32 0, align 4
@hf_awdl_electionparams_unknown = internal global i32 0, align 4
@hf_awdl_electionparams_private_mastermetric = internal global i32 0, align 4
@hf_awdl_electionparams_private_id = internal global i32 0, align 4
@hf_awdl_electionparams_private_phc = internal global i32 0, align 4

; Function Attrs: null_pointer_is_valid sspstrong uwtable
define internal i32 @awdl_tag_election_params(ptr noundef %0, ptr noundef %1, ptr noundef %2, ptr noundef %3) #0 {
  %5 = alloca ptr, align 8
  %6 = alloca ptr, align 8
  %7 = alloca ptr, align 8
  %8 = alloca ptr, align 8
  %9 = alloca i32, align 4
  %10 = alloca i8, align 1
  store ptr %0, ptr %5, align 8
  store ptr %1, ptr %6, align 8
  store ptr %2, ptr %7, align 8
  store ptr %3, ptr %8, align 8
  call void @llvm.lifetime.start.p0(i64 4, ptr %9) #6
  store i32 0, ptr %9, align 4
  call void @llvm.lifetime.start.p0(i64 1, ptr %10) #6
  %11 = load ptr, ptr %5, align 8
  %12 = load i32, ptr %9, align 4
  %13 = call zeroext i8 @tvb_get_uint8(ptr noundef %11, i32 noundef %12)
  store i8 %13, ptr %10, align 1
  %14 = load ptr, ptr %7, align 8
  %15 = load i32, ptr @hf_awdl_electionparams_flags, align 4
  %16 = load ptr, ptr %5, align 8
  %17 = load i32, ptr %9, align 4
  %18 = call ptr @proto_tree_add_item(ptr noundef %14, i32 noundef %15, ptr noundef %16, i32 noundef %17, i32 noundef 1, i32 noundef 0)
  %19 = load i32, ptr %9, align 4
  %20 = add i32 %19, 1
  store i32 %20, ptr %9, align 4
  %21 = load ptr, ptr %7, align 8
  %22 = load i32, ptr @hf_awdl_electionparams_id, align 4
  %23 = load ptr, ptr %5, align 8
  %24 = load i32, ptr %9, align 4
  %25 = call ptr @proto_tree_add_item(ptr noundef %21, i32 noundef %22, ptr noundef %23, i32 noundef %24, i32 noundef 2, i32 noundef 0)
  %26 = load i32, ptr %9, align 4
  %27 = add i32 %26, 2
  store i32 %27, ptr %9, align 4
  %28 = load ptr, ptr %7, align 8
  %29 = load i32, ptr @hf_awdl_electionparams_distance, align 4
  %30 = load ptr, ptr %5, align 8
  %31 = load i32, ptr %9, align 4
  %32 = call ptr @proto_tree_add_item(ptr noundef %28, i32 noundef %29, ptr noundef %30, i32 noundef %31, i32 noundef 1, i32 noundef 0)
  %33 = load i32, ptr %9, align 4
  %34 = add i32 %33, 1
  store i32 %34, ptr %9, align 4
  %35 = load ptr, ptr %7, align 8
  %36 = load i32, ptr @hf_awdl_electionparams_unknown, align 4
  %37 = load ptr, ptr %5, align 8
  %38 = load i32, ptr %9, align 4
  %39 = call ptr @proto_tree_add_item(ptr noundef %35, i32 noundef %36, ptr noundef %37, i32 noundef %38, i32 noundef 1, i32 noundef 0)
  %40 = load i32, ptr %9, align 4
  %41 = add i32 %40, 1
  store i32 %41, ptr %9, align 4
  %42 = load ptr, ptr %7, align 8
  %43 = load i32, ptr @hf_awdl_electionparams_master, align 4
  %44 = load ptr, ptr %5, align 8
  %45 = load i32, ptr %9, align 4
  %46 = call ptr @proto_tree_add_item(ptr noundef %42, i32 noundef %43, ptr noundef %44, i32 noundef %45, i32 noundef 6, i32 noundef 0)
  %47 = load i32, ptr %9, align 4
  %48 = add i32 %47, 6
  store i32 %48, ptr %9, align 4
  %49 = load ptr, ptr %7, align 8
  %50 = load i32, ptr @hf_awdl_electionparams_mastermetric, align 4
  %51 = load ptr, ptr %5, align 8
  %52 = load i32, ptr %9, align 4
  %53 = call ptr @proto_tree_add_item(ptr noundef %49, i32 noundef %50, ptr noundef %51, i32 noundef %52, i32 noundef 4, i32 noundef -2147483648)
  %54 = load i32, ptr %9, align 4
  %55 = add i32 %54, 4
  store i32 %55, ptr %9, align 4
  %56 = load ptr, ptr %7, align 8
  %57 = load i32, ptr @hf_awdl_electionparams_selfmetric, align 4
  %58 = load ptr, ptr %5, align 8
  %59 = load i32, ptr %9, align 4
  %60 = call ptr @proto_tree_add_item(ptr noundef %56, i32 noundef %57, ptr noundef %58, i32 noundef %59, i32 noundef 4, i32 noundef -2147483648)
  %61 = load i32, ptr %9, align 4
  %62 = add i32 %61, 4
  store i32 %62, ptr %9, align 4
  %63 = load i8, ptr %10, align 1
  %64 = icmp ne i8 %63, 0
  br i1 %64, label %65, label %101

65:                                               ; preds = %4
  %66 = load ptr, ptr %7, align 8
  %67 = load i32, ptr @hf_awdl_unknown, align 4
  %68 = load ptr, ptr %5, align 8
  %69 = load i32, ptr %9, align 4
  %70 = call ptr @proto_tree_add_item(ptr noundef %66, i32 noundef %67, ptr noundef %68, i32 noundef %69, i32 noundef 2, i32 noundef 0)
  %71 = load i32, ptr %9, align 4
  %72 = add i32 %71, 2
  store i32 %72, ptr %9, align 4
  %73 = load ptr, ptr %7, align 8
  %74 = load i32, ptr @hf_awdl_electionparams_private_master, align 4
  %75 = load ptr, ptr %5, align 8
  %76 = load i32, ptr %9, align 4
  %77 = call ptr @proto_tree_add_item(ptr noundef %73, i32 noundef %74, ptr noundef %75, i32 noundef %76, i32 noundef 6, i32 noundef 0)
  %78 = load i32, ptr %9, align 4
  %79 = add i32 %78, 6
  store i32 %79, ptr %9, align 4
  %80 = load ptr, ptr %7, align 8
  %81 = load i32, ptr @hf_awdl_electionparams_private_mastermetric, align 4
  %82 = load ptr, ptr %5, align 8
  %83 = load i32, ptr %9, align 4
  %84 = call ptr @proto_tree_add_item(ptr noundef %80, i32 noundef %81, ptr noundef %82, i32 noundef %83, i32 noundef 4, i32 noundef -2147483648)
  %85 = load i32, ptr %9, align 4
  %86 = add i32 %85, 4
  store i32 %86, ptr %9, align 4
  %87 = load ptr, ptr %7, align 8
  %88 = load i32, ptr @hf_awdl_electionparams_private_id, align 4
  %89 = load ptr, ptr %5, align 8
  %90 = load i32, ptr %9, align 4
  %91 = call ptr @proto_tree_add_item(ptr noundef %87, i32 noundef %88, ptr noundef %89, i32 noundef %90, i32 noundef 4, i32 noundef -2147483648)
  %92 = load i32, ptr %9, align 4
  %93 = add i32 %92, 4
  store i32 %93, ptr %9, align 4
  %94 = load ptr, ptr %7, align 8
  %95 = load i32, ptr @hf_awdl_electionparams_private_phc, align 4
  %96 = load ptr, ptr %5, align 8
  %97 = load i32, ptr %9, align 4
  %98 = call ptr @proto_tree_add_item(ptr noundef %94, i32 noundef %95, ptr noundef %96, i32 noundef %97, i32 noundef 2, i32 noundef -2147483648)
  %99 = load i32, ptr %9, align 4
  %100 = add i32 %99, 2
  store i32 %100, ptr %9, align 4
  br label %101

101:                                              ; preds = %65, %4
  %102 = load i32, ptr %9, align 4
  call void @llvm.lifetime.end.p0(i64 1, ptr %10) #6
  call void @llvm.lifetime.end.p0(i64 4, ptr %9) #6
  ret i32 %102
}