; Function Attrs: null_pointer_is_valid sspstrong uwtable
define internal range(i32 19, 38) i32 @awdl_tag_election_params(ptr noundef %0, ptr readnone captures(none) %1, ptr noundef %2, ptr readnone captures(none) %3) #0 {
  %5 = tail call zeroext i8 @tvb_get_uint8(ptr noundef %0, i32 noundef 0)
  %6 = load i32, ptr @hf_awdl_electionparams_flags, align 4
  %7 = tail call ptr @proto_tree_add_item(ptr noundef %2, i32 noundef %6, ptr noundef %0, i32 noundef 0, i32 noundef 1, i32 noundef 0)
  %8 = load i32, ptr @hf_awdl_electionparams_id, align 4
  %9 = tail call ptr @proto_tree_add_item(ptr noundef %2, i32 noundef %8, ptr noundef %0, i32 noundef 1, i32 noundef 2, i32 noundef 0)
  %10 = load i32, ptr @hf_awdl_electionparams_distance, align 4
  %11 = tail call ptr @proto_tree_add_item(ptr noundef %2, i32 noundef %10, ptr noundef %0, i32 noundef 3, i32 noundef 1, i32 noundef 0)
  %12 = load i32, ptr @hf_awdl_electionparams_unknown, align 4
  %13 = tail call ptr @proto_tree_add_item(ptr noundef %2, i32 noundef %12, ptr noundef %0, i32 noundef 4, i32 noundef 1, i32 noundef 0)
  %14 = load i32, ptr @hf_awdl_electionparams_master, align 4
  %15 = tail call ptr @proto_tree_add_item(ptr noundef %2, i32 noundef %14, ptr noundef %0, i32 noundef 5, i32 noundef 6, i32 noundef 0)
  %16 = load i32, ptr @hf_awdl_electionparams_mastermetric, align 4
  %17 = tail call ptr @proto_tree_add_item(ptr noundef %2, i32 noundef %16, ptr noundef %0, i32 noundef 11, i32 noundef 4, i32 noundef -2147483648)
  %18 = load i32, ptr @hf_awdl_electionparams_selfmetric, align 4
  %19 = tail call ptr @proto_tree_add_item(ptr noundef %2, i32 noundef %18, ptr noundef %0, i32 noundef 15, i32 noundef 4, i32 noundef -2147483648)
  %.not = icmp eq i8 %5, 0
  br i1 %.not, label %31, label %20

20:                                               ; preds = %4
  %21 = load i32, ptr @hf_awdl_unknown, align 4
  %22 = tail call ptr @proto_tree_add_item(ptr noundef %2, i32 noundef %21, ptr noundef %0, i32 noundef 19, i32 noundef 2, i32 noundef 0)
  %23 = load i32, ptr @hf_awdl_electionparams_private_master, align 4
  %24 = tail call ptr @proto_tree_add_item(ptr noundef %2, i32 noundef %23, ptr noundef %0, i32 noundef 21, i32 noundef 6, i32 noundef 0)
  %25 = load i32, ptr @hf_awdl_electionparams_private_mastermetric, align 4
  %26 = tail call ptr @proto_tree_add_item(ptr noundef %2, i32 noundef %25, ptr noundef %0, i32 noundef 27, i32 noundef 4, i32 noundef -2147483648)
  %27 = load i32, ptr @hf_awdl_electionparams_private_id, align 4
  %28 = tail call ptr @proto_tree_add_item(ptr noundef %2, i32 noundef %27, ptr noundef %0, i32 noundef 31, i32 noundef 4, i32 noundef -2147483648)
  %29 = load i32, ptr @hf_awdl_electionparams_private_phc, align 4
  %30 = tail call ptr @proto_tree_add_item(ptr noundef %2, i32 noundef %29, ptr noundef %0, i32 noundef 35, i32 noundef 2, i32 noundef -2147483648)
  br label %31

31:                                               ; preds = %20, %4
  %.0 = phi i32 [ 37, %20 ], [ 19, %4 ]
  ret i32 %.0
}